(i__main__
QLearning
p0
(dp1
S'QTable'
p2
(dp3
((S'red'
p4
NS'left'
p5
S'forward'
p6
tp7
Ntp8
F0.48901744712691686
s((S'green'
p9
Ng6
S'right'
p10
tp11
g10
tp12
F3.4681364663659036
s((S'green'
p13
S'forward'
p14
Ng14
tp15
Ntp16
F0.07440465172893454
s((g9
g10
Ng10
tp17
Ntp18
F0.42582220922938246
s((g9
g6
Ng6
tp19
g6
tp20
F5.216240509411089
s((g4
Ng6
g6
tp21
Ntp22
F2.040198162329462
s((g9
NNg6
tp23
Ntp24
F10.84603289756588
s((g9
g10
Ng5
tp25
g10
tp26
F7.8382304416240265
s((g9
Ng10
g6
tp27
Ntp28
F0.2026667756574527
s((g9
Ng10
g10
tp29
g10
tp30
F1.9533048942098763
s((g9
Ng6
g6
tp31
g10
tp32
F2.16261493351443
s((g9
Ng10
g5
tp33
Ntp34
F0.009204362771671432
s((g4
NNg6
tp35
g10
tp36
F9.513103478716609
s((g9
Ng5
g10
tp37
g5
tp38
F6.790006826860732
s((g9
g5
Ng6
tp39
g6
tp40
F0.10248716858868354
s((g4
Ng10
g6
tp41
g5
tp42
F-0.24147725369125503
s((g4
Ng10
g5
tp43
Ntp44
F0.02756224050669462
s((g9
g5
Ng10
tp45
Ntp46
F0.5188686069536338
s((S'red'
p47
S'forward'
p48
Ng48
tp49
g5
tp50
F0.01773234907866737
s((S'red'
p51
S'left'
p52
g52
S'forward'
p53
tp54
Ntp55
F0.00921285043298148
s((g9
g5
Ng6
tp56
g10
tp57
F3.9618064197077154
s((g9
NNg10
tp58
g5
tp59
F10.109557075848114
s((g9
Ng6
g6
tp60
g6
tp61
F11.381171226115478
s((g4
g6
Ng6
tp62
Ntp63
F3.1844792110831883
s((g4
g6
Ng10
tp64
g10
tp65
F9.49870684391621
s((g4
Ng5
g5
tp66
Ntp67
F0.3595192895862474
s((g4
Ng5
g10
tp68
g5
tp69
F-0.4089438495
s((g9
Ng5
g5
tp70
g6
tp71
F4.604953578863251
s((g9
NNg6
tp72
g6
tp73
F11.487967889982487
s((g9
Ng5
g10
tp74
g6
tp75
F2.68758930625
s((g4
Ng6
g6
tp76
g6
tp77
F0.14416777287952517
s((g9
Ng10
g10
tp78
Ntp79
F0.50486895
s((g9
g10
Ng6
tp80
Ntp81
F0.3978883671412729
s((g9
g5
Ng10
tp82
g6
tp83
F4.074925184762914
s((g4
g6
Ng5
tp84
g6
tp85
F-0.005317412141451508
s((g4
NNg10
tp86
g5
tp87
F9.497024802740716
s((g4
g5
Ng6
tp88
Ntp89
F3.0971409357323934
s((g4
g10
Ng6
tp90
Ntp91
F0.5301551569716892
s((g4
NNg6
tp92
Ntp93
F9.104937599432741
s((g4
g10
Ng5
tp94
Ntp95
F0.03243319084512966
s((g4
NNg5
tp96
g6
tp97
F8.34232199749163
s((g4
g6
Ng10
tp98
Ntp99
F0.7695
s((S'red'
p100
S'left'
p101
g101
g101
tp102
Ntp103
F0.0
s((g9
NNg6
tp104
g5
tp105
F10.438388576810903
s((g9
NNg10
tp106
g6
tp107
F10.760082585522449
s((g4
NNg5
tp108
g5
tp109
F8.47626201811914
s((g4
NNg10
tp110
Ntp111
F11.505817892661003
s((g4
g5
Ng10
tp112
Ntp113
F1.583000512038553
s((g4
NNg10
tp114
g6
tp115
F9.657297756004764
s((g9
NNg5
tp116
g10
tp117
F10.39061592689447
s((g9
NNg5
tp118
g6
tp119
F10.678830872263804
s((g9
g5
Ng6
tp120
g5
tp121
F10.003412876824022
s((g4
g6
Ng5
tp122
g5
tp123
F0.11676666949849467
s((g9
NNg10
tp124
Ntp125
F10.804414940977486
s((g9
g6
Ng6
tp126
g5
tp127
F8.956054905717933
s((g9
NNg6
tp128
g10
tp129
F10.287399115601605
s((g4
g5
g10
g6
tp130
Ntp131
F0.012637654914926582
s((g4
NNg5
tp132
g10
tp133
F10.184234487654342
s((g4
Ng10
g6
tp134
Ntp135
F0.3949637179489408
s((g4
g10
Ng6
tp136
g6
tp137
F-0.006630738403027217
s((g4
Ng5
g10
tp138
Ntp139
F0.02756224050669462
s((g4
g5
Ng6
tp140
g6
tp141
F0.0744750130521611
s((g9
Ng5
g6
tp142
g5
tp143
F8.838247534841171
s((g9
g5
Ng5
tp144
Ntp145
F0.9671049846693777
s((g9
g6
Ng10
tp146
g6
tp147
F10.333697801163707
s((g4
g6
Ng5
tp148
Ntp149
F0.5132980049186943
s((g4
Ng10
g10
tp150
Ntp151
F0.2038929769879309
s((g4
NNg10
tp152
g10
tp153
F12.31532600634408
s((g9
g6
Ng5
tp154
Ntp155
F0.3325949890418898
s((g4
g5
Ng10
tp156
g10
tp157
F0.3722230678414568
s((g9
NNg5
tp158
Ntp159
F11.291793693791234
s((g4
Ng6
g5
tp160
Ntp161
F0.08205724408003427
s((g4
g6
Ng10
tp162
g5
tp163
F6.1751085717437135
s((g9
Ng6
g6
tp164
g5
tp165
F2.6618490017006757
s((g9
Ng6
g10
tp166
Ntp167
F0.50486895
s((g9
NNg10
tp168
g10
tp169
F12.381372989290574
s((g9
Ng6
g5
tp170
Ntp171
F0.5228268825480596
s((g4
NNg6
tp172
g5
tp173
F8.151906990852746
s((g4
g6
Ng6
tp174
g6
tp175
F-0.3009466349094696
s((g4
g5
Ng5
tp176
Ntp177
F4.531338717501629
s((g9
NNg5
tp178
g5
tp179
F11.531636908114496
s((g4
g5
Ng10
tp180
g5
tp181
F0.10121860506142526
s((g4
NNg5
tp182
Ntp183
F9.560936288060494
s((g4
Ng6
g10
tp184
Ntp185
F0.06515267070267279
s((g4
NNg6
tp186
g6
tp187
F8.188963066167604
s((S'green'
p188
g52
g52
g53
tp189
Ntp190
F0.027613096134569713
s((g4
g10
Ng10
tp191
Ntp192
F0.18508758819433913
s((g4
g6
g5
g6
tp193
Ntp194
F0.00921285043298148
s((g4
g5
Ng5
tp195
g5
tp196
F10.564832220389821
ssS'alpha_lower_bound'
p197
F0.01
sS'epsilon_lower_bound'
p198
F0.01
sS'possible_actions'
p199
(lp200
Nag6
ag5
ag10
asS'epsilon'
p201
F0.009124001815700375
sS'epsilon_decay_steps'
p202
I200
sS'learning_rate_decay_steps'
p203
I100
sS'time'
p204
I34263
sS'alpha'
p205
F0.00921285043298148
sS'gamma'
p206
F0.9
sb.