(i__main__
QLearning
p0
(dp1
S'QTable'
p2
(dp3
((S'red'
p4
NS'left'
p5
S'forward'
p6
tp7
Ntp8
F0.48901744712691686
s((S'green'
p9
Ng6
S'right'
p10
tp11
g10
tp12
F2.768522905870477
s((g9
g10
Ng10
tp13
Ntp14
F0.42660790209815563
s((S'red'
p15
S'left'
p16
g16
S'forward'
p17
tp18
Ntp19
F0.00921285043298148
s((g4
Ng6
g6
tp20
Ntp21
F2.0515122408412996
s((g9
NNg6
tp22
Ntp23
F10.866148720404293
s((g9
g10
Ng5
tp24
g10
tp25
F7.81346905344923
s((g9
Ng10
g6
tp26
Ntp27
F0.20285366170195698
s((g9
Ng10
g10
tp28
g10
tp29
F1.4465042388715101
s((g9
Ng6
g6
tp30
g10
tp31
F2.16261493351443
s((g9
Ng10
g5
tp32
Ntp33
F0.00921285043298148
s((g9
Ng5
g10
tp34
g5
tp35
F6.554995704305251
s((g9
g5
Ng6
tp36
g6
tp37
F0.10248716858868354
s((g4
Ng10
g6
tp38
g5
tp39
F-0.24147725369125503
s((g4
Ng10
g5
tp40
Ntp41
F0.027613096134569713
s((g9
g5
Ng10
tp42
Ntp43
F0.5188686069536338
s((g4
NNg6
tp44
g10
tp45
F9.96426498386634
s((g9
g5
Ng6
tp46
g10
tp47
F3.9618064197077154
s((g9
NNg5
tp48
g10
tp49
F10.387769043597203
s((g9
Ng6
g6
tp50
g6
tp51
F11.33730455094862
s((g4
g6
Ng6
tp52
Ntp53
F3.270746818119582
s((g4
g6
Ng10
tp54
g10
tp55
F9.101164840972356
s((g4
Ng5
g5
tp56
Ntp57
F0.36051478252101604
s((g4
Ng5
g10
tp58
g5
tp59
F-0.4089438495
s((g9
Ng5
g5
tp60
g6
tp61
F4.3884148861322885
s((g9
NNg6
tp62
g6
tp63
F11.922969529802641
s((g9
Ng5
g10
tp64
g6
tp65
F2.68758930625
s((g9
NNg6
tp66
g10
tp67
F10.297953905818348
s((g9
Ng10
g10
tp68
Ntp69
F0.50486895
s((g9
g10
Ng6
tp70
Ntp71
F0.39899010234655663
s((g4
Ng6
g10
tp72
Ntp73
F0.06515267070267279
s((g4
g6
Ng5
tp74
g6
tp75
F-0.005317412141451508
s((g4
NNg10
tp76
g5
tp77
F9.497024802740716
s((g4
g5
Ng6
tp78
Ntp79
F3.1258195475025277
s((g4
g10
Ng6
tp80
Ntp81
F0.5321133611206272
s((g4
NNg6
tp82
Ntp83
F10.00000305697576
s((g4
g10
Ng5
tp84
Ntp85
F0.03243319084512966
s((g4
NNg5
tp86
g6
tp87
F8.348046776632428
s((g4
g6
Ng10
tp88
Ntp89
F0.7695
s((g9
NNg6
tp90
g5
tp91
F10.440988406304003
s((g9
NNg10
tp92
g6
tp93
F10.76338382386011
s((g4
NNg5
tp94
g5
tp95
F8.47626201811914
s((g4
NNg10
tp96
Ntp97
F11.505817892661003
s((g4
g5
Ng10
tp98
Ntp99
F1.5961867309797189
s((g4
NNg10
tp100
g6
tp101
F9.653052994352423
s((g9
NNg10
tp102
g5
tp103
F10.111828550797059
s((g9
NNg5
tp104
g6
tp105
F10.70090222851161
s((g9
g5
Ng6
tp106
g5
tp107
F9.970570753124175
s((g4
g6
Ng5
tp108
g5
tp109
F0.11676666949849467
s((g9
NNg10
tp110
Ntp111
F10.803867626576567
s((g9
g6
Ng6
tp112
g5
tp113
F9.11395674361795
s((g4
Ng6
g6
tp114
g6
tp115
F0.14416777287952517
s((g4
g5
g10
g6
tp116
Ntp117
F0.012637654914926582
s((g4
NNg5
tp118
g10
tp119
F9.659900364039268
s((g4
Ng10
g6
tp120
Ntp121
F0.3956924732132052
s((g4
g10
Ng6
tp122
g6
tp123
F-0.006630738403027217
s((g4
Ng5
g10
tp124
Ntp125
F0.027613096134569713
s((g4
g5
Ng6
tp126
g6
tp127
F0.0744750130521611
s((g9
Ng5
g6
tp128
g5
tp129
F8.719204904538437
s((g9
g6
Ng6
tp130
g6
tp131
F5.216240509411089
s((g9
g5
Ng5
tp132
Ntp133
F0.9751608620806371
s((g9
g6
Ng10
tp134
g6
tp135
F10.32792695129744
s((g4
g6
Ng5
tp136
Ntp137
F0.5223663004772885
s((g4
Ng10
g10
tp138
Ntp139
F0.2040809937550989
s((g4
NNg10
tp140
g10
tp141
F11.802107708324339
s((g9
g6
Ng5
tp142
Ntp143
F0.33382347636091936
s((g4
g5
Ng10
tp144
g10
tp145
F0.2607756863944424
s((g9
NNg5
tp146
Ntp147
F11.299184337246736
s((g4
Ng6
g5
tp148
Ntp149
F0.08205724408003427
s((g4
g6
Ng10
tp150
g5
tp151
F6.1751085717437135
s((g9
Ng6
g6
tp152
g5
tp153
F2.6618490017006757
s((g9
Ng6
g10
tp154
Ntp155
F0.50486895
s((g9
NNg10
tp156
g10
tp157
F11.892179425935641
s((g9
Ng6
g5
tp158
Ntp159
F0.5276681053076044
s((g4
NNg6
tp160
g5
tp161
F8.151906990852746
s((g4
g6
Ng6
tp162
g6
tp163
F-0.3009466349094696
s((g4
g5
Ng5
tp164
Ntp165
F4.531338717501629
s((g9
NNg5
tp166
g5
tp167
F11.836466311166525
s((g4
g5
Ng10
tp168
g5
tp169
F0.10121860506142526
s((g4
NNg5
tp170
Ntp171
F10.02109984292832
s((g9
g5
Ng10
tp172
g6
tp173
F3.6141621572326788
s((g4
NNg6
tp174
g6
tp175
F8.197805025546803
s((S'green'
p176
g16
g16
g17
tp177
Ntp178
F0.027613096134569713
s((g4
g10
Ng10
tp179
Ntp180
F0.18508758819433913
s((g4
g6
g5
g6
tp181
Ntp182
F0.00921285043298148
s((g4
g5
Ng5
tp183
g5
tp184
F10.831919020775477
ssS'alpha_lower_bound'
p185
F0.01
sS'epsilon_lower_bound'
p186
F0.01
sS'possible_actions'
p187
(lp188
Nag6
ag5
ag10
asS'epsilon'
p189
F0.009124001815700375
sS'epsilon_decay_steps'
p190
I200
sS'learning_rate_decay_steps'
p191
I100
sS'time'
p192
I29106
sS'alpha'
p193
F0.00921285043298148
sS'gamma'
p194
F0.9
sb.